#include <math.h>
#include <stdio.h>
#include <stdlib.h>
#include <string.h>

void main()
{
	int i=0,j=0,t;
	char a[20][20],c;
	while((c=getchar())!='\n')
	{
		if(c!=' ')
		{
			a[i][j]=c;
			j++;
		}
		else 
		{
			a[i][j]='\0';
			j=0;
		
			
			i++;
		}
	}
	a[i][j]='\0';
	for(t=i;t>0;t--)
		printf("%s ",a[t]);
	printf("%s",a[0]);
}