; ModuleID = '23/128.c'
source_filename = "23/128.c"
target datalayout = "e-m:e-p270:32:32-p271:32:32-p272:64:64-i64:64-f80:128-n8:16:32:64-S128"
target triple = "x86_64-pc-linux-gnu"

@.str = private unnamed_addr constant [4 x i8] c"%s \00", align 1
@.str.1 = private unnamed_addr constant [3 x i8] c"%s\00", align 1

; Function Attrs: noinline nounwind uwtable
define dso_local void @main() #0 {
  %1 = alloca i32, align 4
  %2 = alloca i32, align 4
  %3 = alloca i32, align 4
  %4 = alloca [20 x [20 x i8]], align 16
  %5 = alloca i8, align 1
  store i32 0, i32* %1, align 4
  store i32 0, i32* %2, align 4
  br label %6

6:                                                ; preds = %34, %0
  %7 = call i32 @getchar()
  %8 = trunc i32 %7 to i8
  store i8 %8, i8* %5, align 1
  %9 = sext i8 %8 to i32
  %10 = icmp ne i32 %9, 10
  br i1 %10, label %11, label %35

11:                                               ; preds = %6
  %12 = load i8, i8* %5, align 1
  %13 = sext i8 %12 to i32
  %14 = icmp ne i32 %13, 32
  br i1 %14, label %15, label %25

15:                                               ; preds = %11
  %16 = load i8, i8* %5, align 1
  %17 = load i32, i32* %1, align 4
  %18 = sext i32 %17 to i64
  %19 = getelementptr inbounds [20 x [20 x i8]], [20 x [20 x i8]]* %4, i64 0, i64 %18
  %20 = load i32, i32* %2, align 4
  %21 = sext i32 %20 to i64
  %22 = getelementptr inbounds [20 x i8], [20 x i8]* %19, i64 0, i64 %21
  store i8 %16, i8* %22, align 1
  %23 = load i32, i32* %2, align 4
  %24 = add nsw i32 %23, 1
  store i32 %24, i32* %2, align 4
  br label %34

25:                                               ; preds = %11
  %26 = load i32, i32* %1, align 4
  %27 = sext i32 %26 to i64
  %28 = getelementptr inbounds [20 x [20 x i8]], [20 x [20 x i8]]* %4, i64 0, i64 %27
  %29 = load i32, i32* %2, align 4
  %30 = sext i32 %29 to i64
  %31 = getelementptr inbounds [20 x i8], [20 x i8]* %28, i64 0, i64 %30
  store i8 0, i8* %31, align 1
  store i32 0, i32* %2, align 4
  %32 = load i32, i32* %1, align 4
  %33 = add nsw i32 %32, 1
  store i32 %33, i32* %1, align 4
  br label %34

34:                                               ; preds = %25, %15
  br label %6

35:                                               ; preds = %6
  %36 = load i32, i32* %1, align 4
  %37 = sext i32 %36 to i64
  %38 = getelementptr inbounds [20 x [20 x i8]], [20 x [20 x i8]]* %4, i64 0, i64 %37
  %39 = load i32, i32* %2, align 4
  %40 = sext i32 %39 to i64
  %41 = getelementptr inbounds [20 x i8], [20 x i8]* %38, i64 0, i64 %40
  store i8 0, i8* %41, align 1
  %42 = load i32, i32* %1, align 4
  store i32 %42, i32* %3, align 4
  br label %43

43:                                               ; preds = %52, %35
  %44 = load i32, i32* %3, align 4
  %45 = icmp sgt i32 %44, 0
  br i1 %45, label %46, label %55

46:                                               ; preds = %43
  %47 = load i32, i32* %3, align 4
  %48 = sext i32 %47 to i64
  %49 = getelementptr inbounds [20 x [20 x i8]], [20 x [20 x i8]]* %4, i64 0, i64 %48
  %50 = getelementptr inbounds [20 x i8], [20 x i8]* %49, i64 0, i64 0
  %51 = call i32 (i8*, ...) @printf(i8* getelementptr inbounds ([4 x i8], [4 x i8]* @.str, i64 0, i64 0), i8* %50)
  br label %52

52:                                               ; preds = %46
  %53 = load i32, i32* %3, align 4
  %54 = add nsw i32 %53, -1
  store i32 %54, i32* %3, align 4
  br label %43

55:                                               ; preds = %43
  %56 = getelementptr inbounds [20 x [20 x i8]], [20 x [20 x i8]]* %4, i64 0, i64 0
  %57 = getelementptr inbounds [20 x i8], [20 x i8]* %56, i64 0, i64 0
  %58 = call i32 (i8*, ...) @printf(i8* getelementptr inbounds ([3 x i8], [3 x i8]* @.str.1, i64 0, i64 0), i8* %57)
  ret void
}

declare dso_local i32 @getchar() #1

declare dso_local i32 @printf(i8*, ...) #1


!llvm.module.flags = !{!0}
!llvm.ident = !{!1}

!0 = !{i32 1, !"wchar_size", i32 4}
!1 = !{!"clang version 10.0.0-4ubuntu1 "}
