; ModuleID = 'source-C-CXX/22/128.c'
source_filename = "source-C-CXX/22/128.c"
target datalayout = "e-m:e-p270:32:32-p271:32:32-p272:64:64-i64:64-f80:128-n8:16:32:64-S128"
target triple = "x86_64-pc-linux-gnu"

%struct._IO_FILE = type { i32, i8*, i8*, i8*, i8*, i8*, i8*, i8*, i8*, i8*, i8*, i8*, %struct._IO_marker*, %struct._IO_FILE*, i32, i32, i64, i16, i8, [1 x i8], i8*, i64, %struct._IO_codecvt*, %struct._IO_wide_data*, %struct._IO_FILE*, i8*, i64, i32, [20 x i8] }
%struct._IO_marker = type opaque
%struct._IO_codecvt = type opaque
%struct._IO_wide_data = type opaque

@.str = private unnamed_addr constant [4 x i8] c"%s \00", align 1
@.str.1 = private unnamed_addr constant [3 x i8] c"%s\00", align 1
@stdin = external local_unnamed_addr global %struct._IO_FILE*, align 8

; Function Attrs: nofree nounwind sspstrong uwtable
define dso_local void @main() local_unnamed_addr #0 {
  %1 = alloca [20 x [20 x i8]], align 16
  %2 = getelementptr inbounds [20 x [20 x i8]], [20 x [20 x i8]]* %1, i64 0, i64 0, i64 0
  call void @llvm.lifetime.start.p0i8(i64 400, i8* nonnull %2) #3
  br label %3

3:                                                ; preds = %16, %0
  %4 = phi i32 [ %20, %16 ], [ 0, %0 ]
  %5 = zext i32 %4 to i64
  br label %6

6:                                                ; preds = %3, %11
  %7 = phi i32 [ %15, %11 ], [ 0, %3 ]
  %8 = load %struct._IO_FILE*, %struct._IO_FILE** @stdin, align 8, !tbaa !5
  %9 = tail call i32 @getc(%struct._IO_FILE* %8) #3
  %10 = shl i32 %9, 24
  switch i32 %10, label %11 [
    i32 167772160, label %21
    i32 536870912, label %16
  ]

11:                                               ; preds = %6
  %12 = trunc i32 %9 to i8
  %13 = zext i32 %7 to i64
  %14 = getelementptr inbounds [20 x [20 x i8]], [20 x [20 x i8]]* %1, i64 0, i64 %5, i64 %13
  store i8 %12, i8* %14, align 1, !tbaa !9
  %15 = add nuw nsw i32 %7, 1
  br label %6, !llvm.loop !10

16:                                               ; preds = %6
  %17 = zext i32 %4 to i64
  %18 = zext i32 %7 to i64
  %19 = getelementptr inbounds [20 x [20 x i8]], [20 x [20 x i8]]* %1, i64 0, i64 %17, i64 %18
  store i8 0, i8* %19, align 1, !tbaa !9
  %20 = add nuw nsw i32 %4, 1
  br label %3, !llvm.loop !10

21:                                               ; preds = %6
  %22 = zext i32 %4 to i64
  %23 = zext i32 %7 to i64
  %24 = getelementptr inbounds [20 x [20 x i8]], [20 x [20 x i8]]* %1, i64 0, i64 %22, i64 %23
  store i8 0, i8* %24, align 1, !tbaa !9
  %25 = icmp eq i32 %4, 0
  br i1 %25, label %34, label %26

26:                                               ; preds = %21
  %27 = zext i32 %4 to i64
  br label %28

28:                                               ; preds = %26, %28
  %29 = phi i64 [ %27, %26 ], [ %33, %28 ]
  %30 = getelementptr inbounds [20 x [20 x i8]], [20 x [20 x i8]]* %1, i64 0, i64 %29, i64 0
  %31 = call i32 (i8*, ...) @printf(i8* nonnull dereferenceable(1) getelementptr inbounds ([4 x i8], [4 x i8]* @.str, i64 0, i64 0), i8* nonnull %30)
  %32 = icmp sgt i64 %29, 1
  %33 = add nsw i64 %29, -1
  br i1 %32, label %28, label %34, !llvm.loop !12

34:                                               ; preds = %28, %21
  %35 = call i32 (i8*, ...) @printf(i8* nonnull dereferenceable(1) getelementptr inbounds ([3 x i8], [3 x i8]* @.str.1, i64 0, i64 0), i8* nonnull %2)
  call void @llvm.lifetime.end.p0i8(i64 400, i8* nonnull %2) #3
  ret void
}

; Function Attrs: argmemonly mustprogress nofree nosync nounwind willreturn
declare void @llvm.lifetime.start.p0i8(i64 immarg, i8* nocapture) #1

; Function Attrs: nofree nounwind
declare noundef i32 @printf(i8* nocapture noundef readonly, ...) local_unnamed_addr #2

; Function Attrs: argmemonly mustprogress nofree nosync nounwind willreturn
declare void @llvm.lifetime.end.p0i8(i64 immarg, i8* nocapture) #1

; Function Attrs: nofree nounwind
declare noundef i32 @getc(%struct._IO_FILE* nocapture noundef) local_unnamed_addr #2


!llvm.module.flags = !{!0, !1, !2, !3}
!llvm.ident = !{!4}

!0 = !{i32 1, !"wchar_size", i32 4}
!1 = !{i32 7, !"PIC Level", i32 2}
!2 = !{i32 7, !"PIE Level", i32 2}
!3 = !{i32 7, !"uwtable", i32 1}
!4 = !{!"clang version 13.0.0"}
!5 = !{!6, !6, i64 0}
!6 = !{!"any pointer", !7, i64 0}
!7 = !{!"omnipotent char", !8, i64 0}
!8 = !{!"Simple C/C++ TBAA"}
!9 = !{!7, !7, i64 0}
!10 = distinct !{!10, !11}
!11 = !{!"llvm.loop.mustprogress"}
!12 = distinct !{!12, !11}
